target datalayout = "e-m:e-p270:32:32-p271:32:32-p272:64:64-i64:64-i128:128-f80:128-n8:16:32:64-S128"
target triple = "x86_64-pc-linux-gnu"

%struct.PJconsts = type <{ ptr, ptr, ptr, ptr, ptr, ptr, ptr, ptr, ptr, ptr, ptr, ptr, i32, [4 x i8], ptr, ptr, ptr, ptr, ptr, ptr, ptr, ptr, double, double, double, double, double, double, double, double, double, double, double, double, double, double, double, double, double, double, double, double, double, double, i32, i32, i32, i32, i32, i32, i32, i32, i32, i32, i32, [4 x i8], ptr, ptr, ptr, ptr, ptr, ptr, double, double, double, double, double, double, double, double, double, double, double, i32, [4 x i8], [7 x double], i32, [4 x i8], ptr, ptr, double, double, i32, [4 x i8], %"class.std::shared_ptr", i8, [7 x i8], double, i8, [7 x i8], %"class.std::__cxx11::basic_string", %"class.std::__cxx11::basic_string", %"class.std::__cxx11::basic_string", i8, [7 x i8], %"class.std::vector", i32, [4 x i8], %"class.std::vector.3", i32, i8, i8, i8, i8 }>
%"class.std::shared_ptr" = type { %"class.std::__shared_ptr" }
%"class.std::__shared_ptr" = type { ptr, %"class.std::__shared_count" }
%"class.std::__shared_count" = type { ptr }
%"class.std::__cxx11::basic_string" = type { %"struct.std::__cxx11::basic_string<char>::_Alloc_hider", i64, %union.anon }
%"struct.std::__cxx11::basic_string<char>::_Alloc_hider" = type { ptr }
%union.anon = type { i64, [8 x i8] }
%"class.std::vector" = type { %"struct.std::_Vector_base" }
%"struct.std::_Vector_base" = type { %"struct.std::_Vector_base<osgeo::proj::operation::GridDescription, std::allocator<osgeo::proj::operation::GridDescription>>::_Vector_impl" }
%"struct.std::_Vector_base<osgeo::proj::operation::GridDescription, std::allocator<osgeo::proj::operation::GridDescription>>::_Vector_impl" = type { %"struct.std::_Vector_base<osgeo::proj::operation::GridDescription, std::allocator<osgeo::proj::operation::GridDescription>>::_Vector_impl_data" }
%"struct.std::_Vector_base<osgeo::proj::operation::GridDescription, std::allocator<osgeo::proj::operation::GridDescription>>::_Vector_impl_data" = type { ptr, ptr, ptr }
%"class.std::vector.3" = type { %"struct.std::_Vector_base.4" }
%"struct.std::_Vector_base.4" = type { %"struct.std::_Vector_base<PJCoordOperation, std::allocator<PJCoordOperation>>::_Vector_impl" }
%"struct.std::_Vector_base<PJCoordOperation, std::allocator<PJCoordOperation>>::_Vector_impl" = type { %"struct.std::_Vector_base<PJCoordOperation, std::allocator<PJCoordOperation>>::_Vector_impl_data" }
%"struct.std::_Vector_base<PJCoordOperation, std::allocator<PJCoordOperation>>::_Vector_impl_data" = type { ptr, ptr, ptr }
%"struct.(anonymous namespace)::horner" = type { i32, i32, i32, double, i8, double, ptr, ptr, ptr, ptr, ptr, ptr, ptr, ptr }
%struct.PJ_UV = type { double, double }

; Function Attrs: mustprogress nounwind uwtable
define linkonce_odr hidden noundef i32 @_Z37horner_number_of_complex_coefficientsj(i32 noundef %0) #2 comdat {
  %2 = alloca i32, align 4
  store i32 %0, ptr %2, align 4
  %3 = load i32, ptr %2, align 4
  %4 = mul i32 2, %3
  %5 = add i32 %4, 2
  ret i32 %5
}

; Function Attrs: mustprogress uwtable
define internal { double, double } @_ZL19complex_horner_evaljPKd5PJ_UVj(i32 noundef %0, ptr noundef %1, double %2, double %3, i32 noundef %4) #0 {
  %6 = alloca %struct.PJ_UV, align 8
  %7 = alloca %struct.PJ_UV, align 8
  %8 = alloca i32, align 4
  %9 = alloca ptr, align 8
  %10 = alloca i32, align 4
  %11 = alloca i32, align 4
  %12 = alloca double, align 8
  %13 = alloca double, align 8
  %14 = alloca ptr, align 8
  %15 = alloca double, align 8
  %16 = alloca double, align 8
  %17 = alloca double, align 8
  %18 = getelementptr inbounds { double, double }, ptr %7, i32 0, i32 0
  store double %2, ptr %18, align 8
  %19 = getelementptr inbounds { double, double }, ptr %7, i32 0, i32 1
  store double %3, ptr %19, align 8
  store i32 %0, ptr %8, align 4
  store ptr %1, ptr %9, align 8
  store i32 %4, ptr %10, align 4
  %20 = load i32, ptr %8, align 4
  %21 = call noundef i32 @_Z37horner_number_of_complex_coefficientsj(i32 noundef %20)
  store i32 %21, ptr %11, align 4
  %22 = getelementptr inbounds %struct.PJ_UV, ptr %7, i32 0, i32 0
  %23 = load double, ptr %22, align 8
  store double %23, ptr %12, align 8
  %24 = getelementptr inbounds %struct.PJ_UV, ptr %7, i32 0, i32 1
  %25 = load double, ptr %24, align 8
  store double %25, ptr %13, align 8
  %26 = load ptr, ptr %9, align 8
  %27 = load i32, ptr %10, align 4
  %28 = mul i32 %27, 2
  %29 = zext i32 %28 to i64
  %30 = getelementptr inbounds double, ptr %26, i64 %29
  store ptr %30, ptr %14, align 8
  %31 = load i32, ptr %11, align 4
  %32 = load ptr, ptr %9, align 8
  %33 = zext i32 %31 to i64
  %34 = getelementptr inbounds double, ptr %32, i64 %33
  store ptr %34, ptr %9, align 8
  %35 = load ptr, ptr %9, align 8
  %36 = getelementptr inbounds double, ptr %35, i32 -1
  store ptr %36, ptr %9, align 8
  %37 = load double, ptr %36, align 8
  store double %37, ptr %15, align 8
  %38 = load ptr, ptr %9, align 8
  %39 = getelementptr inbounds double, ptr %38, i32 -1
  store ptr %39, ptr %9, align 8
  %40 = load double, ptr %39, align 8
  store double %40, ptr %16, align 8
  br label %41

41:                                               ; preds = %45, %5
  %42 = load ptr, ptr %9, align 8
  %43 = load ptr, ptr %14, align 8
  %44 = icmp ugt ptr %42, %43
  br i1 %44, label %45, label %68

45:                                               ; preds = %41
  %46 = load double, ptr %13, align 8
  %47 = load double, ptr %15, align 8
  %48 = load double, ptr %12, align 8
  %49 = load double, ptr %16, align 8
  %50 = fmul double %48, %49
  %51 = call double @llvm.fmuladd.f64(double %46, double %47, double %50)
  %52 = load ptr, ptr %9, align 8
  %53 = getelementptr inbounds double, ptr %52, i32 -1
  store ptr %53, ptr %9, align 8
  %54 = load double, ptr %53, align 8
  %55 = fadd double %51, %54
  store double %55, ptr %17, align 8
  %56 = load double, ptr %13, align 8
  %57 = load double, ptr %16, align 8
  %58 = load double, ptr %12, align 8
  %59 = load double, ptr %15, align 8
  %60 = fmul double %58, %59
  %61 = fneg double %60
  %62 = call double @llvm.fmuladd.f64(double %56, double %57, double %61)
  %63 = load ptr, ptr %9, align 8
  %64 = getelementptr inbounds double, ptr %63, i32 -1
  store ptr %64, ptr %9, align 8
  %65 = load double, ptr %64, align 8
  %66 = fadd double %62, %65
  store double %66, ptr %16, align 8
  %67 = load double, ptr %17, align 8
  store double %67, ptr %15, align 8
  br label %41, !llvm.loop !6

68:                                               ; preds = %41
  %69 = getelementptr inbounds %struct.PJ_UV, ptr %6, i32 0, i32 0
  %70 = load double, ptr %15, align 8
  store double %70, ptr %69, align 8
  %71 = getelementptr inbounds %struct.PJ_UV, ptr %6, i32 0, i32 1
  %72 = load double, ptr %16, align 8
  store double %72, ptr %71, align 8
  %73 = load { double, double }, ptr %6, align 8
  ret { double, double } %73
}

; Function Attrs: mustprogress nounwind uwtable
define internal { double, double } @_ZL21generate_error_coordsv() #2 {
  %1 = alloca %struct.PJ_UV, align 8
  %2 = getelementptr inbounds %struct.PJ_UV, ptr %1, i32 0, i32 1
  store double 0x7FF0000000000000, ptr %2, align 8
  %3 = getelementptr inbounds %struct.PJ_UV, ptr %1, i32 0, i32 0
  store double 0x7FF0000000000000, ptr %3, align 8
  %4 = load { double, double }, ptr %1, align 8
  ret { double, double } %4
}

; Function Attrs: mustprogress uwtable
define internal noundef zeroext i1 @_ZL19coords_out_of_rangeP8PJconstsPKN12_GLOBAL__N_16hornerEdd(ptr noundef %0, ptr noundef %1, double noundef %2, double noundef %3) #0 {
  %5 = alloca i1, align 1
  %6 = alloca ptr, align 8
  %7 = alloca ptr, align 8
  %8 = alloca double, align 8
  %9 = alloca double, align 8
  %10 = alloca double, align 8
  store ptr %0, ptr %6, align 8
  store ptr %1, ptr %7, align 8
  store double %2, ptr %8, align 8
  store double %3, ptr %9, align 8
  %11 = load ptr, ptr %7, align 8
  %12 = getelementptr inbounds %"struct.(anonymous namespace)::horner", ptr %11, i32 0, i32 3
  %13 = load double, ptr %12, align 8
  store double %13, ptr %10, align 8
  %14 = load double, ptr %8, align 8
  %15 = call double @llvm.fabs.f64(double %14)
  %16 = load double, ptr %10, align 8
  %17 = fcmp ogt double %15, %16
  br i1 %17, label %23, label %18

18:                                               ; preds = %4
  %19 = load double, ptr %9, align 8
  %20 = call double @llvm.fabs.f64(double %19)
  %21 = load double, ptr %10, align 8
  %22 = fcmp ogt double %20, %21
  br i1 %22, label %23, label %26

23:                                               ; preds = %18, %4
  %24 = load ptr, ptr %6, align 8
  %25 = call i32 @proj_errno_set(ptr noundef %24, i32 noundef 2050)
  store i1 true, ptr %5, align 1
  br label %27

26:                                               ; preds = %18
  store i1 false, ptr %5, align 1
  br label %27

27:                                               ; preds = %26, %23
  %28 = load i1, ptr %5, align 1
  ret i1 %28
}

; Function Attrs: mustprogress uwtable
define internal { double, double } @_ZL20complex_default_implP8PJconstsPKN12_GLOBAL__N_16hornerE12PJ_DIRECTION5PJ_UV(ptr noundef %0, ptr noundef %1, i32 noundef %2, double %3, double %4) #0 {
  %6 = alloca %struct.PJ_UV, align 8
  %7 = alloca %struct.PJ_UV, align 8
  %8 = alloca ptr, align 8
  %9 = alloca ptr, align 8
  %10 = alloca i32, align 4
  %11 = alloca double, align 8
  %12 = alloca double, align 8
  %13 = alloca ptr, align 8
  %14 = alloca %struct.PJ_UV, align 8
  %15 = alloca %struct.PJ_UV, align 8
  %16 = alloca %struct.PJ_UV, align 8
  %17 = getelementptr inbounds { double, double }, ptr %7, i32 0, i32 0
  store double %3, ptr %17, align 8
  %18 = getelementptr inbounds { double, double }, ptr %7, i32 0, i32 1
  store double %4, ptr %18, align 8
  store ptr %0, ptr %8, align 8
  store ptr %1, ptr %9, align 8
  store i32 %2, ptr %10, align 4
  %19 = load i32, ptr %10, align 4
  %20 = icmp eq i32 %19, 1
  br i1 %20, label %21, label %38

21:                                               ; preds = %5
  %22 = getelementptr inbounds %struct.PJ_UV, ptr %7, i32 0, i32 0
  %23 = load double, ptr %22, align 8
  %24 = load ptr, ptr %9, align 8
  %25 = getelementptr inbounds %"struct.(anonymous namespace)::horner", ptr %24, i32 0, i32 12
  %26 = load ptr, ptr %25, align 8
  %27 = getelementptr inbounds %struct.PJ_UV, ptr %26, i32 0, i32 0
  %28 = load double, ptr %27, align 8
  %29 = fsub double %23, %28
  store double %29, ptr %12, align 8
  %30 = getelementptr inbounds %struct.PJ_UV, ptr %7, i32 0, i32 1
  %31 = load double, ptr %30, align 8
  %32 = load ptr, ptr %9, align 8
  %33 = getelementptr inbounds %"struct.(anonymous namespace)::horner", ptr %32, i32 0, i32 12
  %34 = load ptr, ptr %33, align 8
  %35 = getelementptr inbounds %struct.PJ_UV, ptr %34, i32 0, i32 1
  %36 = load double, ptr %35, align 8
  %37 = fsub double %31, %36
  store double %37, ptr %11, align 8
  br label %55

38:                                               ; preds = %5
  %39 = getelementptr inbounds %struct.PJ_UV, ptr %7, i32 0, i32 0
  %40 = load double, ptr %39, align 8
  %41 = load ptr, ptr %9, align 8
  %42 = getelementptr inbounds %"struct.(anonymous namespace)::horner", ptr %41, i32 0, i32 13
  %43 = load ptr, ptr %42, align 8
  %44 = getelementptr inbounds %struct.PJ_UV, ptr %43, i32 0, i32 0
  %45 = load double, ptr %44, align 8
  %46 = fsub double %40, %45
  store double %46, ptr %12, align 8
  %47 = getelementptr inbounds %struct.PJ_UV, ptr %7, i32 0, i32 1
  %48 = load double, ptr %47, align 8
  %49 = load ptr, ptr %9, align 8
  %50 = getelementptr inbounds %"struct.(anonymous namespace)::horner", ptr %49, i32 0, i32 13
  %51 = load ptr, ptr %50, align 8
  %52 = getelementptr inbounds %struct.PJ_UV, ptr %51, i32 0, i32 1
  %53 = load double, ptr %52, align 8
  %54 = fsub double %48, %53
  store double %54, ptr %11, align 8
  br label %55

55:                                               ; preds = %38, %21
  %56 = load ptr, ptr %9, align 8
  %57 = getelementptr inbounds %"struct.(anonymous namespace)::horner", ptr %56, i32 0, i32 0
  %58 = load i32, ptr %57, align 8
  %59 = icmp ne i32 %58, 0
  br i1 %59, label %60, label %63

60:                                               ; preds = %55
  %61 = load double, ptr %12, align 8
  %62 = fneg double %61
  store double %62, ptr %12, align 8
  br label %63

63:                                               ; preds = %60, %55
  %64 = load ptr, ptr %9, align 8
  %65 = getelementptr inbounds %"struct.(anonymous namespace)::horner", ptr %64, i32 0, i32 1
  %66 = load i32, ptr %65, align 4
  %67 = icmp ne i32 %66, 0
  br i1 %67, label %68, label %71

68:                                               ; preds = %63
  %69 = load double, ptr %11, align 8
  %70 = fneg double %69
  store double %70, ptr %11, align 8
  br label %71

71:                                               ; preds = %68, %63
  %72 = load ptr, ptr %8, align 8
  %73 = load ptr, ptr %9, align 8
  %74 = load double, ptr %11, align 8
  %75 = load double, ptr %12, align 8
  %76 = call noundef zeroext i1 @_ZL19coords_out_of_rangeP8PJconstsPKN12_GLOBAL__N_16hornerEdd(ptr noundef %72, ptr noundef %73, double noundef %74, double noundef %75)
  br i1 %76, label %77, label %83

77:                                               ; preds = %71
  %78 = call { double, double } @_ZL21generate_error_coordsv()
  %79 = getelementptr inbounds { double, double }, ptr %6, i32 0, i32 0
  %80 = extractvalue { double, double } %78, 0
  store double %80, ptr %79, align 8
  %81 = getelementptr inbounds { double, double }, ptr %6, i32 0, i32 1
  %82 = extractvalue { double, double } %78, 1
  store double %82, ptr %81, align 8
  br label %113

83:                                               ; preds = %71
  %84 = load i32, ptr %10, align 4
  %85 = icmp eq i32 %84, 1
  br i1 %85, label %86, label %90

86:                                               ; preds = %83
  %87 = load ptr, ptr %9, align 8
  %88 = getelementptr inbounds %"struct.(anonymous namespace)::horner", ptr %87, i32 0, i32 10
  %89 = load ptr, ptr %88, align 8
  br label %94

90:                                               ; preds = %83
  %91 = load ptr, ptr %9, align 8
  %92 = getelementptr inbounds %"struct.(anonymous namespace)::horner", ptr %91, i32 0, i32 11
  %93 = load ptr, ptr %92, align 8
  br label %94

94:                                               ; preds = %90, %86
  %95 = phi ptr [ %89, %86 ], [ %93, %90 ]
  store ptr %95, ptr %13, align 8
  %96 = getelementptr inbounds %struct.PJ_UV, ptr %14, i32 0, i32 0
  %97 = load double, ptr %12, align 8
  store double %97, ptr %96, align 8
  %98 = getelementptr inbounds %struct.PJ_UV, ptr %14, i32 0, i32 1
  %99 = load double, ptr %11, align 8
  store double %99, ptr %98, align 8
  %100 = load ptr, ptr %9, align 8
  %101 = getelementptr inbounds %"struct.(anonymous namespace)::horner", ptr %100, i32 0, i32 2
  %102 = load i32, ptr %101, align 8
  %103 = load ptr, ptr %13, align 8
  call void @llvm.memcpy.p0.p0.i64(ptr align 8 %16, ptr align 8 %14, i64 16, i1 false)
  %104 = getelementptr inbounds { double, double }, ptr %16, i32 0, i32 0
  %105 = load double, ptr %104, align 8
  %106 = getelementptr inbounds { double, double }, ptr %16, i32 0, i32 1
  %107 = load double, ptr %106, align 8
  %108 = call { double, double } @_ZL19complex_horner_evaljPKd5PJ_UVj(i32 noundef %102, ptr noundef %103, double %105, double %107, i32 noundef 0)
  %109 = getelementptr inbounds { double, double }, ptr %15, i32 0, i32 0
  %110 = extractvalue { double, double } %108, 0
  store double %110, ptr %109, align 8
  %111 = getelementptr inbounds { double, double }, ptr %15, i32 0, i32 1
  %112 = extractvalue { double, double } %108, 1
  store double %112, ptr %111, align 8
  call void @llvm.memcpy.p0.p0.i64(ptr align 8 %7, ptr align 8 %15, i64 16, i1 false)
  call void @llvm.memcpy.p0.p0.i64(ptr align 8 %6, ptr align 8 %7, i64 16, i1 false)
  br label %113

113:                                              ; preds = %94, %77
  %114 = load { double, double }, ptr %6, align 8
  ret { double, double } %114
}

; Function Attrs: mustprogress uwtable
define internal void @_ZL25complex_horner_forward_4dR8PJ_COORDP8PJconsts(ptr noundef nonnull align 8 dereferenceable(32) %0, ptr noundef %1) #0 {
  %3 = alloca ptr, align 8
  %4 = alloca ptr, align 8
  %5 = alloca ptr, align 8
  %6 = alloca %struct.PJ_UV, align 8
  %7 = alloca %struct.PJ_UV, align 8
  store ptr %0, ptr %3, align 8
  store ptr %1, ptr %4, align 8
  %8 = load ptr, ptr %4, align 8
  %9 = getelementptr inbounds %struct.PJconsts, ptr %8, i32 0, i32 11
  %10 = load ptr, ptr %9, align 8
  store ptr %10, ptr %5, align 8
  %11 = load ptr, ptr %4, align 8
  %12 = load ptr, ptr %5, align 8
  %13 = load ptr, ptr %3, align 8
  call void @llvm.memcpy.p0.p0.i64(ptr align 8 %7, ptr align 8 %13, i64 16, i1 false)
  %14 = getelementptr inbounds { double, double }, ptr %7, i32 0, i32 0
  %15 = load double, ptr %14, align 8
  %16 = getelementptr inbounds { double, double }, ptr %7, i32 0, i32 1
  %17 = load double, ptr %16, align 8
  %18 = call { double, double } @_ZL20complex_default_implP8PJconstsPKN12_GLOBAL__N_16hornerE12PJ_DIRECTION5PJ_UV(ptr noundef %11, ptr noundef %12, i32 noundef 1, double %15, double %17)
  %19 = getelementptr inbounds { double, double }, ptr %6, i32 0, i32 0
  %20 = extractvalue { double, double } %18, 0
  store double %20, ptr %19, align 8
  %21 = getelementptr inbounds { double, double }, ptr %6, i32 0, i32 1
  %22 = extractvalue { double, double } %18, 1
  store double %22, ptr %21, align 8
  %23 = load ptr, ptr %3, align 8
  call void @llvm.memcpy.p0.p0.i64(ptr align 8 %23, ptr align 8 %6, i64 16, i1 false)
  ret void
}